Certificate:
    Data:
        Version: 3 (0x2)
        Serial Number: 9 (0x9)
        Signature Algorithm: sha256WithRSAEncryption
        Issuer: C=NH, ST=Noord-Holland, L=Amsterdam, O=Gert, OU=Server Research Department, CN=Gert CA/emailAddress=sam@tehsvk.net
        Validity
            Not Before: Sep 20 20:38:36 2018 GMT
            Not After : Sep 20 20:38:36 2019 GMT
        Subject: C=NL, ST=Noord-Holland, L=Amsterdam, O=GertChat, CN=localhost
        Subject Public Key Info:
            Public Key Algorithm: rsaEncryption
                RSA Public-Key: (2048 bit)
                Modulus:
                    00:da:e4:e4:e2:85:ce:35:01:64:76:7c:04:96:eb:
                    8e:b0:9d:f5:bb:0e:08:fc:f7:33:d3:7e:4d:31:e8:
                    58:0d:7e:85:25:85:c2:9f:85:c3:3d:32:63:1b:66:
                    05:27:ea:56:3b:b9:82:c1:57:e7:3e:f3:57:c0:16:
                    46:98:6f:24:9f:55:59:79:52:72:b8:71:75:95:78:
                    53:01:c1:ed:af:1c:2c:6a:0d:6d:c0:b9:85:45:95:
                    25:5f:29:96:ca:f6:e7:6f:2d:1d:06:27:35:21:02:
                    80:4b:8a:36:d1:ff:97:02:2f:cf:18:3e:26:7c:f2:
                    a5:f2:c9:1b:d7:45:de:06:08:3c:7b:35:60:67:83:
                    9f:7a:3b:97:86:7c:44:4c:92:ce:81:3c:1e:21:39:
                    52:fd:da:d7:ad:93:2e:a6:84:32:f7:ca:70:a8:16:
                    dd:d0:08:6e:49:ed:71:e0:58:76:d5:97:ce:5f:94:
                    75:1e:ef:d1:b2:3f:c0:0f:a1:f2:e9:8c:81:f2:b6:
                    80:45:ba:61:ff:60:f5:6f:5d:3f:11:a2:d6:b8:e1:
                    60:9d:c2:92:c1:61:6c:52:2c:0f:6f:47:df:ee:40:
                    c1:32:bb:67:b0:c1:18:44:33:81:78:ea:55:22:77:
                    60:4f:12:fb:48:1e:ba:89:ed:d1:c5:d1:3b:48:2a:
                    8d:7d
                Exponent: 65537 (0x10001)
        X509v3 extensions:
            X509v3 Subject Key Identifier: 
                48:08:DD:45:88:D0:06:38:D6:78:40:26:BC:F2:F0:36:FB:1E:A7:51
            X509v3 Authority Key Identifier: 
                keyid:01:FD:90:22:5B:D6:C5:6A:6D:28:61:C9:7D:B9:54:31:E8:55:A6:2C

            X509v3 Basic Constraints: 
                CA:FALSE
            X509v3 Key Usage: 
                Digital Signature, Key Encipherment
            X509v3 Subject Alternative Name: 
                DNS:localhost, IP Address:127.0.0.1, IP Address:0:0:0:0:0:0:0:1
    Signature Algorithm: sha256WithRSAEncryption
         2f:7d:9b:e3:e0:d0:3e:7f:fa:47:a8:06:1b:25:f5:34:1e:28:
         c0:9e:dd:15:23:0d:8d:c4:41:79:a9:1a:b9:2b:5e:76:d0:fa:
         1b:e5:36:a3:a7:1a:69:cd:56:7a:ec:62:eb:3c:09:b1:fb:e9:
         d7:81:f3:34:0e:fd:51:2e:f2:11:6c:5b:d0:bf:1a:39:70:8b:
         df:d9:5b:78:b5:c3:20:63:15:c3:f1:85:8d:9a:f2:b3:0a:6a:
         bc:ff:31:f8:e5:67:66:62:09:05:15:7a:68:dc:c2:93:fd:4a:
         88:3b:c9:8d:ed:7e:d2:1e:96:bd:2e:ff:2f:f5:32:ba:ef:8e:
         1f:ef:49:78:dd:6a:db:e7:58:d1:a0:0b:0a:4d:71:15:ce:c7:
         d0:d0:10:97:9f:46:9f:e8:33:18:fb:38:e8:b6:38:90:6b:08:
         7e:22:63:08:16:74:13:92:0a:2f:57:6f:a0:11:4a:92:f2:5b:
         8a:31:12:e9:43:c5:a0:a3:16:0f:a0:a1:18:87:b7:0f:32:27:
         c7:d6:83:bd:1d:f5:c3:ae:74:78:cd:37:86:a8:f3:a8:2c:03:
         d4:35:d0:77:80:2c:f4:7f:81:a5:e7:d0:2a:e3:a1:c6:29:44:
         fe:ee:5a:4c:52:b1:1b:ae:05:a8:97:af:9b:fb:ff:0b:5c:b6:
         1c:0d:25:e0:13:fb:c9:24:e5:04:a4:ac:6b:9c:9a:b0:5f:88:
         b4:d6:f0:ff:e2:c9:a1:18:2b:8a:fd:c8:5d:e1:98:36:14:69:
         d2:5e:6b:91:40:a1:23:72:ec:01:9e:91:9a:87:ee:3c:14:6f:
         7a:43:59:78:58:ee:71:f5:17:eb:92:d7:fe:bd:f1:05:50:30:
         28:d5:0b:61:84:6f:74:95:9c:06:f2:00:4b:6e:ad:1a:4c:54:
         e3:8b:4d:be:5f:7a:e9:ec:d4:ec:d0:d2:4d:3f:06:88:ef:81:
         69:e5:b5:aa:b2:1e:e7:ac:0f:9c:c4:76:f6:fe:93:7a:e6:75:
         1a:fc:4c:0d:46:43:8f:d9:e9:7e:ea:d3:d1:95:97:f8:1a:f2:
         f1:97:3d:27:a9:3a:68:2c:14:fb:19:b6:c9:72:0d:49:b2:53:
         5b:79:de:43:4a:4e:d2:1f:83:b4:64:8f:1d:17:ce:ec:ae:1b:
         dd:1c:a9:7b:aa:3e:24:42:fc:f6:8b:1f:6a:5f:70:20:0d:ea:
         40:61:67:c6:f8:9c:bc:0c:43:34:39:2e:93:80:6e:3e:a1:57:
         8a:e1:38:f3:24:0a:7d:6b:50:b8:ac:df:d0:21:40:a0:4e:c0:
         af:6c:a0:1b:b2:41:9c:4c:67:f8:12:be:5a:91:ff:1b:bb:a5:
         fa:0e:18:ad:af:93:67:a8
-----BEGIN CERTIFICATE-----
MIIFBDCCAuygAwIBAgIBCTANBgkqhkiG9w0BAQsFADCBnjELMAkGA1UEBhMCTkgx
FjAUBgNVBAgMDU5vb3JkLUhvbGxhbmQxEjAQBgNVBAcMCUFtc3RlcmRhbTENMAsG
A1UECgwER2VydDEjMCEGA1UECwwaU2VydmVyIFJlc2VhcmNoIERlcGFydG1lbnQx
EDAOBgNVBAMMB0dlcnQgQ0ExHTAbBgkqhkiG9w0BCQEWDnNhbUB0ZWhzdmsubmV0
MB4XDTE4MDkyMDIwMzgzNloXDTE5MDkyMDIwMzgzNlowYDELMAkGA1UEBhMCTkwx
FjAUBgNVBAgMDU5vb3JkLUhvbGxhbmQxEjAQBgNVBAcMCUFtc3RlcmRhbTERMA8G
A1UECgwIR2VydENoYXQxEjAQBgNVBAMMCWxvY2FsaG9zdDCCASIwDQYJKoZIhvcN
AQEBBQADggEPADCCAQoCggEBANrk5OKFzjUBZHZ8BJbrjrCd9bsOCPz3M9N+TTHo
WA1+hSWFwp+Fwz0yYxtmBSfqVju5gsFX5z7zV8AWRphvJJ9VWXlScrhxdZV4UwHB
7a8cLGoNbcC5hUWVJV8plsr2528tHQYnNSECgEuKNtH/lwIvzxg+JnzypfLJG9dF
3gYIPHs1YGeDn3o7l4Z8REySzoE8HiE5Uv3a162TLqaEMvfKcKgW3dAIbkntceBY
dtWXzl+UdR7v0bI/wA+h8umMgfK2gEW6Yf9g9W9dPxGi1rjhYJ3CksFhbFIsD29H
3+5AwTK7Z7DBGEQzgXjqVSJ3YE8S+0geuont0cXRO0gqjX0CAwEAAaOBiTCBhjAd
BgNVHQ4EFgQUSAjdRYjQBjjWeEAmvPLwNvsep1EwHwYDVR0jBBgwFoAUAf2QIlvW
xWptKGHJfblUMehVpiwwCQYDVR0TBAIwADALBgNVHQ8EBAMCBaAwLAYDVR0RBCUw
I4IJbG9jYWxob3N0hwR/AAABhxAAAAAAAAAAAAAAAAAAAAABMA0GCSqGSIb3DQEB
CwUAA4ICAQAvfZvj4NA+f/pHqAYbJfU0HijAnt0VIw2NxEF5qRq5K1520Pob5Taj
pxppzVZ67GLrPAmx++nXgfM0Dv1RLvIRbFvQvxo5cIvf2Vt4tcMgYxXD8YWNmvKz
Cmq8/zH45WdmYgkFFXpo3MKT/UqIO8mN7X7SHpa9Lv8v9TK6744f70l43Wrb51jR
oAsKTXEVzsfQ0BCXn0af6DMY+zjotjiQawh+ImMIFnQTkgovV2+gEUqS8luKMRLp
Q8WgoxYPoKEYh7cPMifH1oO9HfXDrnR4zTeGqPOoLAPUNdB3gCz0f4Gl59Aq46HG
KUT+7lpMUrEbrgWol6+b+/8LXLYcDSXgE/vJJOUEpKxrnJqwX4i01vD/4smhGCuK
/chd4Zg2FGnSXmuRQKEjcuwBnpGah+48FG96Q1l4WO5x9Rfrktf+vfEFUDAo1Qth
hG90lZwG8gBLbq0aTFTji02+X3rp7NTs0NJNPwaI74Fp5bWqsh7nrA+cxHb2/pN6
5nUa/EwNRkOP2el+6tPRlZf4GvLxlz0nqTpoLBT7GbbJcg1JslNbed5DSk7SH4O0
ZI8dF87srhvdHKl7qj4kQvz2ix9qX3AgDepAYWfG+Jy8DEM0OS6TgG4+oVeK4Tjz
JAp9a1C4rN/QIUCgTsCvbKAbskGcTGf4Er5akf8bu6X6Dhitr5NnqA==
-----END CERTIFICATE-----
-----BEGIN CERTIFICATE-----
MIIGITCCBAmgAwIBAgIJAJ9hgTyKqOpXMA0GCSqGSIb3DQEBCwUAMIGeMQswCQYD
VQQGEwJOSDEWMBQGA1UECAwNTm9vcmQtSG9sbGFuZDESMBAGA1UEBwwJQW1zdGVy
ZGFtMQ0wCwYDVQQKDARHZXJ0MSMwIQYDVQQLDBpTZXJ2ZXIgUmVzZWFyY2ggRGVw
YXJ0bWVudDEQMA4GA1UEAwwHR2VydCBDQTEdMBsGCSqGSIb3DQEJARYOc2FtQHRl
aHN2ay5uZXQwHhcNMTgwOTE2MDIyNzU4WhcNMjYxMjAzMDIyNzU4WjCBnjELMAkG
A1UEBhMCTkgxFjAUBgNVBAgMDU5vb3JkLUhvbGxhbmQxEjAQBgNVBAcMCUFtc3Rl
cmRhbTENMAsGA1UECgwER2VydDEjMCEGA1UECwwaU2VydmVyIFJlc2VhcmNoIERl
cGFydG1lbnQxEDAOBgNVBAMMB0dlcnQgQ0ExHTAbBgkqhkiG9w0BCQEWDnNhbUB0
ZWhzdmsubmV0MIICIjANBgkqhkiG9w0BAQEFAAOCAg8AMIICCgKCAgEA1FW3Osw5
EDSAfrN676UJVKim3CnY+NLEPL9Ia2YQQe8R7iK58/kf79kHIriu7Hy3CmcQ6mir
XPs23G4Jebj0J/QJxZIKXeixH0t39eT6K/8wWpHhY5j08lgjl9JE/Wj3skKwhtMP
juaGLzRfhZrG2K4p5xQAS82jqtlyrhYXTOmhXIqpL91YL7v320xgyLPwox+YBueu
OC3yuqFjAPxp4pe1ntCY4RNQayiuu2tW2RNRQBgY3hY+FQ7ptVLY2L24XfJsyjTZ
W5mB47Zjrd6GKzHkA8dCimTEWwI1GCX/J9Ydhgy2zAH/vIolRSc1le7pnQe4DOut
eLKsfDTnKT/TG9+U930VrUY1wDknt5ba/Xy/dVHpOEi/YO+cIu/iGe0sf9NnN6nd
0fK4lqw2tPncAbgemZEkSze4RmrJfnJjGA21GvOFmIlVTh7xuh2LsBhbQ2huNf67
Niq17/mD26UIAMZVd0zKpGat4YTEuAmj65ilFtghHG0Sjj01Bp+3gXCFemjicBS6
yLY0JPaST855uTeoL2HzUx3RgKT5p7L/ES+/XiJ3BtxUFWWNqMRsoDxJ9T2X2jrT
cSAOu08ATuztHi0P6IzOn8tclJMULQd7KZRpBd2N4j7aoy9M5P4AQILCxDfcAiWq
mfJAtgzoNNU9Sw94DfXZYjTAtQ9bJPly/98CAwEAAaNgMF4wHQYDVR0OBBYEFAH9
kCJb1sVqbShhyX25VDHoVaYsMB8GA1UdIwQYMBaAFAH9kCJb1sVqbShhyX25VDHo
VaYsMA8GA1UdEwEB/wQFMAMBAf8wCwYDVR0PBAQDAgEGMA0GCSqGSIb3DQEBCwUA
A4ICAQDGvXqm0DHRune6wylgE4ZGxh+qZ4n7fkaT0fJyr9kc+niNzmeJVut/d11/
jqb1Lt+wKQ/OSPwfvI2+yRhA9wUGb1/rKR6LXXBxHh2lfahyOLAoMmc8BYAi1EGl
vk0MC/o40UWwT8xqKcv76lY8bLsHMrBG90/ia6STyZFfT4a/eC6xP1KIAOlc+f9K
lhFd/zybpmF8FM56I6YQxtqd7UoptwTUbjYK81N3vp9Z4jwtNoHrOyxFnFIQZt5T
Oghfx3f6BqW9xo4EgPT804wbGb0j/VG5814sB6gyUOFi7am+ETeT5ukbDbJ0qTiB
qWE6JxFrHyxry0zs9WW8JFx8j0CV4YPcSrgg89EsCcJP4hORAcvu592hq3DPPqxZ
v/PYgsdqL25LN+MXrgjUV1cQHDD+hBqnSjUbOlC1BDaWo+g6PmUN7yO3Sgp1DkzV
26Kw/b0qE4cwNaRLxVEwDd8+XEH+r0KCsUt8zJoTZGBze1ALanWEm/Tfxj+Ct8AO
MXPCFfjxWiJsLdO9HHh+Z+SSLuPqh651qmk3JAb8HPTAJt+039V7UUpYNY5dW13k
pnFW3xFI4YSXYBSCzWEZwj+5uXO7CugWtyFYXluVRk00ELj4cZD0soQai8PhfX/0
BR9gR2CpEAP0NrkkyblJS268k35Gq+8FHb2wTzdsvVDDFqUcbg==
-----END CERTIFICATE-----
